target datalayout = "e-m:e-p270:32:32-p271:32:32-p272:64:64-i64:64-i128:128-f80:128-n8:16:32:64-S128"
target triple = "x86_64-pc-linux-gnu"

@ShenandoahGCHeuristics = external global ptr, align 8
@.str.11 = private unnamed_addr constant [49 x i8] c"Unknown -XX:ShenandoahGCHeuristics option (null)\00", align 1
@_ZN8Universe14_collectedHeapE = external global ptr, align 8

; Function Attrs: mustprogress nounwind uwtable
define linkonce_odr hidden noundef ptr @_ZN8Universe4heapEv() #1 comdat align 2 {
  %1 = load ptr, ptr @_ZN8Universe14_collectedHeapE, align 8
  ret ptr %1
}

; Function Attrs: mustprogress nounwind uwtable
define linkonce_odr hidden noundef ptr @_ZN13CollectedHeap10named_heapI14ShenandoahHeapEEPT_NS_4NameE(i32 noundef %0) #1 comdat align 2 {
  %2 = alloca i32, align 4
  %3 = alloca ptr, align 8
  store i32 %0, ptr %2, align 4
  %4 = call noundef ptr @_ZN8Universe4heapEv()
  store ptr %4, ptr %3, align 8
  %5 = load ptr, ptr %3, align 8
  ret ptr %5
}

; Function Attrs: mustprogress nounwind uwtable
define linkonce_odr hidden noundef ptr @_ZN14ShenandoahHeap4heapEv() #1 comdat align 2 {
  %1 = call noundef ptr @_ZN13CollectedHeap10named_heapI14ShenandoahHeapEEPT_NS_4NameE(i32 noundef 6)
  ret ptr %1
}

; Function Attrs: mustprogress nounwind uwtable
define hidden noundef ptr @_ZNK21ShenandoahPassiveMode21initialize_heuristicsEv(ptr noundef nonnull align 8 dereferenceable(8) %0) unnamed_addr #1 align 2 {
  %2 = alloca i64, align 8
  %3 = alloca i8, align 1
  %4 = alloca i64, align 8
  %5 = alloca ptr, align 8
  store ptr %0, ptr %5, align 8
  %6 = load ptr, ptr @ShenandoahGCHeuristics, align 8
  %7 = icmp eq ptr %6, null
  br i1 %7, label %8, label %9

8:                                                ; preds = %1
  call void @_Z29vm_exit_during_initializationPKcS0_(ptr noundef @.str.11, ptr noundef null)
  br label %9

9:                                                ; preds = %8, %1
  store i64 200, ptr %4, align 8
  %10 = load i64, ptr %4, align 8
  store i64 %10, ptr %2, align 8
  store i8 5, ptr %3, align 1
  %11 = load i64, ptr %2, align 8
  %12 = load i8, ptr %3, align 1
  %13 = call noundef ptr @_Z12AllocateHeapm8MEMFLAGSN17AllocFailStrategy13AllocFailEnumE(i64 noundef %11, i8 noundef zeroext %12, i32 noundef 0) #4
  %14 = call noundef ptr @_ZN14ShenandoahHeap4heapEv()
  %15 = icmp eq ptr %14, null
  br i1 %15, label %18, label %16

16:                                               ; preds = %9
  %17 = getelementptr inbounds i8, ptr %14, i64 104
  br label %18

18:                                               ; preds = %16, %9
  %19 = phi ptr [ %17, %16 ], [ null, %9 ]
  call void @_ZN27ShenandoahPassiveHeuristicsC1EP19ShenandoahSpaceInfo(ptr noundef nonnull align 8 dereferenceable(193) %13, ptr noundef %19)
  ret ptr %13
}