; Function Attrs: mustprogress nounwind uwtable
define hidden noundef ptr @_ZNK21ShenandoahPassiveMode21initialize_heuristicsEv(ptr nocapture nonnull readnone align 8 %0) unnamed_addr #0 align 2 {
  %2 = load ptr, ptr @ShenandoahGCHeuristics, align 8
  %3 = icmp eq ptr %2, null
  br i1 %3, label %4, label %5

4:                                                ; preds = %1
  tail call void @_Z29vm_exit_during_initializationPKcS0_(ptr noundef nonnull @.str.11, ptr noundef null) #4
  br label %5

5:                                                ; preds = %4, %1
  %6 = tail call noundef ptr @_Z12AllocateHeapm8MEMFLAGSN17AllocFailStrategy13AllocFailEnumE(i64 noundef 200, i8 noundef zeroext 5, i32 noundef 0) #4
  %7 = load ptr, ptr @_ZN8Universe14_collectedHeapE, align 8
  %8 = icmp eq ptr %7, null
  %9 = getelementptr inbounds i8, ptr %7, i64 104
  %spec.select = select i1 %8, ptr null, ptr %9
  tail call void @_ZN27ShenandoahPassiveHeuristicsC1EP19ShenandoahSpaceInfo(ptr noundef nonnull align 8 dereferenceable(193) %6, ptr noundef %spec.select) #4
  ret ptr %6
}